; Function Attrs: mustprogress uwtable
define void @_ZN7testing8internal12UnitTestImpl14RecordPropertyERKNS_12TestPropertyE(ptr noundef nonnull align 8 dereferenceable(497) %this, ptr noundef nonnull align 8 dereferenceable(64) %test_property) local_unnamed_addr #3 align 2 personality ptr @__gxx_personality_v0 {
entry:
  %xml_element = alloca %"class.std::__cxx11::basic_string", align 8
  call void @_ZNSt7__cxx1112basic_stringIcSt11char_traitsIcESaIcEEC1Ev(ptr noundef nonnull align 8 dereferenceable(32) %xml_element) #47
  %current_test_info_ = getelementptr inbounds i8, ptr %this, i64 272
  %0 = load ptr, ptr %current_test_info_, align 8
  %cmp.not = icmp eq ptr %0, null
  br i1 %cmp.not, label %if.else, label %if.then

if.then:                                          ; preds = %entry
  %call = invoke noundef nonnull align 8 dereferenceable(32) ptr @_ZNSt7__cxx1112basic_stringIcSt11char_traitsIcESaIcEEaSEPKc(ptr noundef nonnull align 8 dereferenceable(32) %xml_element, ptr noundef nonnull @.str.194)
          to label %invoke.cont unwind label %lpad

invoke.cont:                                      ; preds = %if.then
  %1 = load ptr, ptr %current_test_info_, align 8
  %result_ = getelementptr inbounds i8, ptr %1, i64 144
  br label %if.end12

lpad:                                             ; preds = %if.end12, %if.else8, %if.then4, %if.then
  %2 = landingpad { ptr, i32 }
          cleanup
  call void @_ZNSt7__cxx1112basic_stringIcSt11char_traitsIcESaIcEED1Ev(ptr noundef nonnull align 8 dereferenceable(32) %xml_element) #47
  resume { ptr, i32 } %2

if.else:                                          ; preds = %entry
  %current_test_case_ = getelementptr inbounds i8, ptr %this, i64 264
  %3 = load ptr, ptr %current_test_case_, align 8
  %cmp3.not = icmp eq ptr %3, null
  br i1 %cmp3.not, label %if.else8, label %if.then4

if.then4:                                         ; preds = %if.else
  %call6 = invoke noundef nonnull align 8 dereferenceable(32) ptr @_ZNSt7__cxx1112basic_stringIcSt11char_traitsIcESaIcEEaSEPKc(ptr noundef nonnull align 8 dereferenceable(32) %xml_element, ptr noundef nonnull @.str.210)
          to label %invoke.cont5 unwind label %lpad

invoke.cont5:                                     ; preds = %if.then4
  %4 = load ptr, ptr %current_test_case_, align 8
  %ad_hoc_test_result_ = getelementptr inbounds i8, ptr %4, i64 128
  br label %if.end12

if.else8:                                         ; preds = %if.else
  %call10 = invoke noundef nonnull align 8 dereferenceable(32) ptr @_ZNSt7__cxx1112basic_stringIcSt11char_traitsIcESaIcEEaSEPKc(ptr noundef nonnull align 8 dereferenceable(32) %xml_element, ptr noundef nonnull @.str.217)
          to label %invoke.cont9 unwind label %lpad

invoke.cont9:                                     ; preds = %if.else8
  %ad_hoc_test_result_11 = getelementptr inbounds i8, ptr %this, i64 280
  br label %if.end12

if.end12:                                         ; preds = %invoke.cont5, %invoke.cont9, %invoke.cont
  %test_result.0 = phi ptr [ %result_, %invoke.cont ], [ %ad_hoc_test_result_, %invoke.cont5 ], [ %ad_hoc_test_result_11, %invoke.cont9 ]
  invoke void @_ZN7testing10TestResult14RecordPropertyERKNSt7__cxx1112basic_stringIcSt11char_traitsIcESaIcEEERKNS_12TestPropertyE(ptr noundef nonnull align 8 dereferenceable(120) %test_result.0, ptr noundef nonnull align 8 dereferenceable(32) %xml_element, ptr noundef nonnull align 8 dereferenceable(64) %test_property)
          to label %invoke.cont13 unwind label %lpad

invoke.cont13:                                    ; preds = %if.end12
  call void @_ZNSt7__cxx1112basic_stringIcSt11char_traitsIcESaIcEED1Ev(ptr noundef nonnull align 8 dereferenceable(32) %xml_element) #47
  ret void
}